target datalayout = "e-m:e-p270:32:32-p271:32:32-p272:64:64-i64:64-i128:128-f80:128-n8:16:32:64-S128"
target triple = "x86_64-pc-linux-gnu"

%struct.entry_t = type { i32, ptr }

; Function Attrs: nounwind uwtable
define dso_local i32 @job_state_reason_num(ptr noundef %0) #0 {
  %2 = alloca i32, align 4
  %3 = alloca ptr, align 8
  %4 = alloca i32, align 4
  %5 = alloca i32, align 4
  store ptr %0, ptr %3, align 8
  call void @llvm.lifetime.start.p0(i64 4, ptr %4) #3
  store i32 0, ptr %4, align 4
  br label %6

6:                                                ; preds = %22, %1
  %7 = load i32, ptr %4, align 4
  %8 = icmp slt i32 %7, 221
  br i1 %8, label %10, label %9

9:                                                ; preds = %6
  store i32 2, ptr %5, align 4
  br label %25

10:                                               ; preds = %6
  %11 = load ptr, ptr %3, align 8
  %12 = load i32, ptr %4, align 4
  %13 = sext i32 %12 to i64
  %14 = getelementptr inbounds [221 x %struct.entry_t], ptr @jsra, i64 0, i64 %13
  %15 = getelementptr inbounds nuw %struct.entry_t, ptr %14, i32 0, i32 1
  %16 = load ptr, ptr %15, align 8
  %17 = call i32 @xstrcasecmp(ptr noundef %11, ptr noundef %16)
  %18 = icmp ne i32 %17, 0
  br i1 %18, label %21, label %19

19:                                               ; preds = %10
  %20 = load i32, ptr %4, align 4
  store i32 %20, ptr %2, align 4
  store i32 1, ptr %5, align 4
  br label %25

21:                                               ; preds = %10
  br label %22

22:                                               ; preds = %21
  %23 = load i32, ptr %4, align 4
  %24 = add nsw i32 %23, 1
  store i32 %24, ptr %4, align 4
  br label %6, !llvm.loop !8

25:                                               ; preds = %19, %9
  call void @llvm.lifetime.end.p0(i64 4, ptr %4) #3
  %26 = load i32, ptr %5, align 4
  switch i32 %26, label %30 [
    i32 2, label %27
    i32 1, label %28
  ]

27:                                               ; preds = %25
  store i32 -2, ptr %2, align 4
  br label %28

28:                                               ; preds = %27, %25
  %29 = load i32, ptr %2, align 4
  ret i32 %29

30:                                               ; preds = %25
  unreachable
}