; Function Attrs: nounwind uwtable
define dso_local i32 @job_state_reason_num(ptr noundef %0) #1 {
  br label %2

2:                                                ; preds = %1, %6
  %indvars.iv = phi i64 [ 0, %1 ], [ %indvars.iv.next, %6 ]
  %3 = getelementptr inbounds nuw [221 x %struct.entry_t], ptr @jsra, i64 0, i64 %indvars.iv, i32 1
  %4 = load ptr, ptr %3, align 8
  %5 = tail call i32 @xstrcasecmp(ptr noundef %0, ptr noundef %4) #3
  %.not = icmp eq i32 %5, 0
  br i1 %.not, label %.split.loop.exit, label %6

6:                                                ; preds = %2
  %indvars.iv.next = add nuw nsw i64 %indvars.iv, 1
  %exitcond = icmp eq i64 %indvars.iv.next, 221
  br i1 %exitcond, label %.split.loop.exit10, label %2, !llvm.loop !8

.split.loop.exit:                                 ; preds = %2
  %7 = trunc nuw nsw i64 %indvars.iv to i32
  br label %.split.loop.exit10

.split.loop.exit10:                               ; preds = %6, %.split.loop.exit
  %spec.select = phi i32 [ %7, %.split.loop.exit ], [ -2, %6 ]
  ret i32 %spec.select
}